; ModuleID = 'source-C-CXX/11/229.cpp'
source_filename = "source-C-CXX/11/229.cpp"
target datalayout = "e-m:e-p270:32:32-p271:32:32-p272:64:64-i64:64-f80:128-n8:16:32:64-S128"
target triple = "x86_64-pc-linux-gnu"

%"class.std::ios_base::Init" = type { i8 }
%"class.std::basic_istream" = type { i32 (...)**, i64, %"class.std::basic_ios" }
%"class.std::basic_ios" = type { %"class.std::ios_base", %"class.std::basic_ostream"*, i8, i8, %"class.std::basic_streambuf"*, %"class.std::ctype"*, %"class.std::num_put"*, %"class.std::num_get"* }
%"class.std::ios_base" = type { i32 (...)**, i64, i64, i32, i32, i32, %"struct.std::ios_base::_Callback_list"*, %"struct.std::ios_base::_Words", [8 x %"struct.std::ios_base::_Words"], i32, %"struct.std::ios_base::_Words"*, %"class.std::locale" }
%"struct.std::ios_base::_Callback_list" = type { %"struct.std::ios_base::_Callback_list"*, void (i32, %"class.std::ios_base"*, i32)*, i32, i32 }
%"struct.std::ios_base::_Words" = type { i8*, i64 }
%"class.std::locale" = type { %"class.std::locale::_Impl"* }
%"class.std::locale::_Impl" = type { i32, %"class.std::locale::facet"**, i64, %"class.std::locale::facet"**, i8** }
%"class.std::locale::facet" = type <{ i32 (...)**, i32, [4 x i8] }>
%"class.std::basic_ostream" = type { i32 (...)**, %"class.std::basic_ios" }
%"class.std::basic_streambuf" = type { i32 (...)**, i8*, i8*, i8*, i8*, i8*, i8*, %"class.std::locale" }
%"class.std::ctype" = type <{ %"class.std::locale::facet.base", [4 x i8], %struct.__locale_struct*, i8, [7 x i8], i32*, i32*, i16*, i8, [256 x i8], [256 x i8], i8, [6 x i8] }>
%"class.std::locale::facet.base" = type <{ i32 (...)**, i32 }>
%struct.__locale_struct = type { [13 x %struct.__locale_data*], i16*, i32*, i32*, [13 x i8*] }
%struct.__locale_data = type opaque
%"class.std::num_put" = type { %"class.std::locale::facet.base", [4 x i8] }
%"class.std::num_get" = type { %"class.std::locale::facet.base", [4 x i8] }

@_ZStL8__ioinit = internal global %"class.std::ios_base::Init" zeroinitializer, align 1
@__dso_handle = external hidden global i8
@_ZSt3cin = external global %"class.std::basic_istream", align 8
@_ZSt4cout = external global %"class.std::basic_ostream", align 8
@llvm.global_ctors = appending global [1 x { i32, void ()*, i8* }] [{ i32, void ()*, i8* } { i32 65535, void ()* @_GLOBAL__sub_I_229.cpp, i8* null }]

declare void @_ZNSt8ios_base4InitC1Ev(%"class.std::ios_base::Init"* nonnull align 1 dereferenceable(1)) unnamed_addr #0

; Function Attrs: nounwind
declare void @_ZNSt8ios_base4InitD1Ev(%"class.std::ios_base::Init"* nonnull align 1 dereferenceable(1)) unnamed_addr #1

; Function Attrs: nofree nounwind
declare i32 @__cxa_atexit(void (i8*)*, i8*, i8*) local_unnamed_addr #2

; Function Attrs: mustprogress norecurse sspstrong uwtable
define dso_local i32 @main() local_unnamed_addr #3 {
  %1 = alloca i32, align 4
  %2 = alloca [15 x i32], align 16
  %3 = bitcast i32* %1 to i8*
  call void @llvm.lifetime.start.p0i8(i64 4, i8* nonnull %3) #9
  %4 = bitcast [15 x i32]* %2 to i8*
  %5 = getelementptr inbounds [15 x i32], [15 x i32]* %2, i64 0, i64 0
  %6 = call nonnull align 8 dereferenceable(16) %"class.std::basic_istream"* @_ZNSirsERi(%"class.std::basic_istream"* nonnull align 8 dereferenceable(16) @_ZSt3cin, i32* nonnull align 4 dereferenceable(4) %1)
  %7 = bitcast %"class.std::basic_istream"* %6 to i8**
  %8 = load i8*, i8** %7, align 8, !tbaa !5
  %9 = getelementptr i8, i8* %8, i64 -24
  %10 = bitcast i8* %9 to i64*
  %11 = load i64, i64* %10, align 8
  %12 = bitcast %"class.std::basic_istream"* %6 to i8*
  %13 = add nsw i64 %11, 32
  %14 = getelementptr inbounds i8, i8* %12, i64 %13
  %15 = bitcast i8* %14 to i32*
  %16 = load i32, i32* %15, align 8, !tbaa !8
  %17 = and i32 %16, 5
  %18 = icmp eq i32 %17, 0
  br i1 %18, label %19, label %156

19:                                               ; preds = %0, %142
  %20 = load i32, i32* %1, align 4, !tbaa !18
  %21 = icmp eq i32 %20, -1
  br i1 %21, label %142, label %22

22:                                               ; preds = %19
  call void @llvm.lifetime.start.p0i8(i64 60, i8* nonnull %4) #9
  call void @llvm.memset.p0i8.i64(i8* noundef nonnull align 16 dereferenceable(60) %4, i8 0, i64 60, i1 false)
  store i32 %20, i32* %5, align 16, !tbaa !18
  %23 = icmp eq i32 %20, 0
  br i1 %23, label %110, label %29

24:                                               ; preds = %29
  %25 = trunc i64 %31 to i32
  %26 = icmp eq i32 %25, 0
  br i1 %26, label %110, label %27

27:                                               ; preds = %24
  %28 = and i64 %31, 4294967295
  br label %40

29:                                               ; preds = %22, %29
  %30 = phi i64 [ %31, %29 ], [ 0, %22 ]
  %31 = add nuw nsw i64 %30, 1
  %32 = getelementptr inbounds [15 x i32], [15 x i32]* %2, i64 0, i64 %31
  %33 = call nonnull align 8 dereferenceable(16) %"class.std::basic_istream"* @_ZNSirsERi(%"class.std::basic_istream"* nonnull align 8 dereferenceable(16) @_ZSt3cin, i32* nonnull align 4 dereferenceable(4) %32)
  %34 = load i32, i32* %32, align 4, !tbaa !18
  %35 = icmp eq i32 %34, 0
  br i1 %35, label %24, label %29, !llvm.loop !19

36:                                               ; preds = %97, %90, %40
  %37 = phi i32 [ %43, %40 ], [ %92, %90 ], [ %107, %97 ]
  %38 = add nuw nsw i64 %42, 1
  %39 = icmp eq i64 %46, %28
  br i1 %39, label %110, label %40, !llvm.loop !21

40:                                               ; preds = %27, %36
  %41 = phi i64 [ 0, %27 ], [ %46, %36 ]
  %42 = phi i64 [ 1, %27 ], [ %38, %36 ]
  %43 = phi i32 [ 0, %27 ], [ %37, %36 ]
  %44 = xor i64 %41, -1
  %45 = add nsw i64 %28, %44
  %46 = add nuw nsw i64 %41, 1
  %47 = icmp ult i64 %46, %28
  br i1 %47, label %48, label %36

48:                                               ; preds = %40
  %49 = getelementptr inbounds [15 x i32], [15 x i32]* %2, i64 0, i64 %41
  %50 = load i32, i32* %49, align 4, !tbaa !18
  %51 = shl nsw i32 %50, 1
  %52 = icmp ult i64 %45, 8
  br i1 %52, label %94, label %53

53:                                               ; preds = %48
  %54 = and i64 %45, -8
  %55 = add i64 %42, %54
  %56 = insertelement <4 x i32> <i32 poison, i32 0, i32 0, i32 0>, i32 %43, i32 0
  %57 = insertelement <4 x i32> poison, i32 %51, i32 0
  %58 = shufflevector <4 x i32> %57, <4 x i32> poison, <4 x i32> zeroinitializer
  %59 = insertelement <4 x i32> poison, i32 %51, i32 0
  %60 = shufflevector <4 x i32> %59, <4 x i32> poison, <4 x i32> zeroinitializer
  %61 = insertelement <4 x i32> poison, i32 %50, i32 0
  %62 = shufflevector <4 x i32> %61, <4 x i32> poison, <4 x i32> zeroinitializer
  %63 = insertelement <4 x i32> poison, i32 %50, i32 0
  %64 = shufflevector <4 x i32> %63, <4 x i32> poison, <4 x i32> zeroinitializer
  br label %65

65:                                               ; preds = %65, %53
  %66 = phi i64 [ 0, %53 ], [ %88, %65 ]
  %67 = phi <4 x i32> [ %56, %53 ], [ %86, %65 ]
  %68 = phi <4 x i32> [ zeroinitializer, %53 ], [ %87, %65 ]
  %69 = add i64 %42, %66
  %70 = getelementptr inbounds [15 x i32], [15 x i32]* %2, i64 0, i64 %69
  %71 = bitcast i32* %70 to <4 x i32>*
  %72 = load <4 x i32>, <4 x i32>* %71, align 4, !tbaa !18
  %73 = getelementptr inbounds i32, i32* %70, i64 4
  %74 = bitcast i32* %73 to <4 x i32>*
  %75 = load <4 x i32>, <4 x i32>* %74, align 4, !tbaa !18
  %76 = icmp eq <4 x i32> %72, %58
  %77 = icmp eq <4 x i32> %75, %60
  %78 = shl nsw <4 x i32> %72, <i32 1, i32 1, i32 1, i32 1>
  %79 = shl nsw <4 x i32> %75, <i32 1, i32 1, i32 1, i32 1>
  %80 = icmp eq <4 x i32> %62, %78
  %81 = icmp eq <4 x i32> %64, %79
  %82 = select <4 x i1> %76, <4 x i1> <i1 true, i1 true, i1 true, i1 true>, <4 x i1> %80
  %83 = select <4 x i1> %77, <4 x i1> <i1 true, i1 true, i1 true, i1 true>, <4 x i1> %81
  %84 = zext <4 x i1> %82 to <4 x i32>
  %85 = zext <4 x i1> %83 to <4 x i32>
  %86 = add <4 x i32> %67, %84
  %87 = add <4 x i32> %68, %85
  %88 = add nuw i64 %66, 8
  %89 = icmp eq i64 %88, %54
  br i1 %89, label %90, label %65, !llvm.loop !22

90:                                               ; preds = %65
  %91 = add <4 x i32> %87, %86
  %92 = call i32 @llvm.vector.reduce.add.v4i32(<4 x i32> %91)
  %93 = icmp eq i64 %45, %54
  br i1 %93, label %36, label %94

94:                                               ; preds = %48, %90
  %95 = phi i64 [ %42, %48 ], [ %55, %90 ]
  %96 = phi i32 [ %43, %48 ], [ %92, %90 ]
  br label %97

97:                                               ; preds = %94, %97
  %98 = phi i64 [ %108, %97 ], [ %95, %94 ]
  %99 = phi i32 [ %107, %97 ], [ %96, %94 ]
  %100 = getelementptr inbounds [15 x i32], [15 x i32]* %2, i64 0, i64 %98
  %101 = load i32, i32* %100, align 4, !tbaa !18
  %102 = icmp eq i32 %101, %51
  %103 = shl nsw i32 %101, 1
  %104 = icmp eq i32 %50, %103
  %105 = select i1 %102, i1 true, i1 %104
  %106 = zext i1 %105 to i32
  %107 = add nsw i32 %99, %106
  %108 = add nuw nsw i64 %98, 1
  %109 = icmp eq i64 %108, %28
  br i1 %109, label %36, label %97, !llvm.loop !24

110:                                              ; preds = %36, %22, %24
  %111 = phi i32 [ 0, %24 ], [ 0, %22 ], [ %37, %36 ]
  %112 = call nonnull align 8 dereferenceable(8) %"class.std::basic_ostream"* @_ZNSolsEi(%"class.std::basic_ostream"* nonnull align 8 dereferenceable(8) @_ZSt4cout, i32 %111)
  %113 = bitcast %"class.std::basic_ostream"* %112 to i8**
  %114 = load i8*, i8** %113, align 8, !tbaa !5
  %115 = getelementptr i8, i8* %114, i64 -24
  %116 = bitcast i8* %115 to i64*
  %117 = load i64, i64* %116, align 8
  %118 = bitcast %"class.std::basic_ostream"* %112 to i8*
  %119 = add nsw i64 %117, 240
  %120 = getelementptr inbounds i8, i8* %118, i64 %119
  %121 = bitcast i8* %120 to %"class.std::ctype"**
  %122 = load %"class.std::ctype"*, %"class.std::ctype"** %121, align 8, !tbaa !26
  %123 = icmp eq %"class.std::ctype"* %122, null
  br i1 %123, label %124, label %125

124:                                              ; preds = %110
  call void @_ZSt16__throw_bad_castv() #10
  unreachable

125:                                              ; preds = %110
  %126 = getelementptr inbounds %"class.std::ctype", %"class.std::ctype"* %122, i64 0, i32 8
  %127 = load i8, i8* %126, align 8, !tbaa !29
  %128 = icmp eq i8 %127, 0
  br i1 %128, label %132, label %129

129:                                              ; preds = %125
  %130 = getelementptr inbounds %"class.std::ctype", %"class.std::ctype"* %122, i64 0, i32 9, i64 10
  %131 = load i8, i8* %130, align 1, !tbaa !31
  br label %138

132:                                              ; preds = %125
  call void @_ZNKSt5ctypeIcE13_M_widen_initEv(%"class.std::ctype"* nonnull align 8 dereferenceable(570) %122)
  %133 = bitcast %"class.std::ctype"* %122 to i8 (%"class.std::ctype"*, i8)***
  %134 = load i8 (%"class.std::ctype"*, i8)**, i8 (%"class.std::ctype"*, i8)*** %133, align 8, !tbaa !5
  %135 = getelementptr inbounds i8 (%"class.std::ctype"*, i8)*, i8 (%"class.std::ctype"*, i8)** %134, i64 6
  %136 = load i8 (%"class.std::ctype"*, i8)*, i8 (%"class.std::ctype"*, i8)** %135, align 8
  %137 = call signext i8 %136(%"class.std::ctype"* nonnull align 8 dereferenceable(570) %122, i8 signext 10)
  br label %138

138:                                              ; preds = %129, %132
  %139 = phi i8 [ %131, %129 ], [ %137, %132 ]
  %140 = call nonnull align 8 dereferenceable(8) %"class.std::basic_ostream"* @_ZNSo3putEc(%"class.std::basic_ostream"* nonnull align 8 dereferenceable(8) %112, i8 signext %139)
  %141 = call nonnull align 8 dereferenceable(8) %"class.std::basic_ostream"* @_ZNSo5flushEv(%"class.std::basic_ostream"* nonnull align 8 dereferenceable(8) %140)
  call void @llvm.lifetime.end.p0i8(i64 60, i8* nonnull %4) #9
  br label %142

142:                                              ; preds = %138, %19
  %143 = call nonnull align 8 dereferenceable(16) %"class.std::basic_istream"* @_ZNSirsERi(%"class.std::basic_istream"* nonnull align 8 dereferenceable(16) @_ZSt3cin, i32* nonnull align 4 dereferenceable(4) %1)
  %144 = bitcast %"class.std::basic_istream"* %143 to i8**
  %145 = load i8*, i8** %144, align 8, !tbaa !5
  %146 = getelementptr i8, i8* %145, i64 -24
  %147 = bitcast i8* %146 to i64*
  %148 = load i64, i64* %147, align 8
  %149 = bitcast %"class.std::basic_istream"* %143 to i8*
  %150 = add nsw i64 %148, 32
  %151 = getelementptr inbounds i8, i8* %149, i64 %150
  %152 = bitcast i8* %151 to i32*
  %153 = load i32, i32* %152, align 8, !tbaa !8
  %154 = and i32 %153, 5
  %155 = icmp eq i32 %154, 0
  br i1 %155, label %19, label %156, !llvm.loop !32

156:                                              ; preds = %142, %0
  call void @llvm.lifetime.end.p0i8(i64 4, i8* nonnull %3) #9
  ret i32 0
}

; Function Attrs: argmemonly mustprogress nofree nosync nounwind willreturn
declare void @llvm.lifetime.start.p0i8(i64 immarg, i8* nocapture) #4

declare nonnull align 8 dereferenceable(16) %"class.std::basic_istream"* @_ZNSirsERi(%"class.std::basic_istream"* nonnull align 8 dereferenceable(16), i32* nonnull align 4 dereferenceable(4)) local_unnamed_addr #0

; Function Attrs: argmemonly mustprogress nofree nounwind willreturn writeonly
declare void @llvm.memset.p0i8.i64(i8* nocapture writeonly, i8, i64, i1 immarg) #5

declare nonnull align 8 dereferenceable(8) %"class.std::basic_ostream"* @_ZNSolsEi(%"class.std::basic_ostream"* nonnull align 8 dereferenceable(8), i32) local_unnamed_addr #0

; Function Attrs: argmemonly mustprogress nofree nosync nounwind willreturn
declare void @llvm.lifetime.end.p0i8(i64 immarg, i8* nocapture) #4

declare nonnull align 8 dereferenceable(8) %"class.std::basic_ostream"* @_ZNSo3putEc(%"class.std::basic_ostream"* nonnull align 8 dereferenceable(8), i8 signext) local_unnamed_addr #0

declare nonnull align 8 dereferenceable(8) %"class.std::basic_ostream"* @_ZNSo5flushEv(%"class.std::basic_ostream"* nonnull align 8 dereferenceable(8)) local_unnamed_addr #0

; Function Attrs: noreturn
declare void @_ZSt16__throw_bad_castv() local_unnamed_addr #6

declare void @_ZNKSt5ctypeIcE13_M_widen_initEv(%"class.std::ctype"* nonnull align 8 dereferenceable(570)) local_unnamed_addr #0

; Function Attrs: sspstrong uwtable
define internal void @_GLOBAL__sub_I_229.cpp() #7 section ".text.startup" {
  tail call void @_ZNSt8ios_base4InitC1Ev(%"class.std::ios_base::Init"* nonnull align 1 dereferenceable(1) @_ZStL8__ioinit)
  %1 = tail call i32 @__cxa_atexit(void (i8*)* bitcast (void (%"class.std::ios_base::Init"*)* @_ZNSt8ios_base4InitD1Ev to void (i8*)*), i8* getelementptr inbounds (%"class.std::ios_base::Init", %"class.std::ios_base::Init"* @_ZStL8__ioinit, i64 0, i32 0), i8* nonnull @__dso_handle) #9
  ret void
}

; Function Attrs: nofree nosync nounwind readnone willreturn
declare i32 @llvm.vector.reduce.add.v4i32(<4 x i32>) #8


!llvm.module.flags = !{!0, !1, !2, !3}
!llvm.ident = !{!4}

!0 = !{i32 1, !"wchar_size", i32 4}
!1 = !{i32 7, !"PIC Level", i32 2}
!2 = !{i32 7, !"PIE Level", i32 2}
!3 = !{i32 7, !"uwtable", i32 1}
!4 = !{!"clang version 13.0.0"}
!5 = !{!6, !6, i64 0}
!6 = !{!"vtable pointer", !7, i64 0}
!7 = !{!"Simple C++ TBAA"}
!8 = !{!9, !13, i64 32}
!9 = !{!"_ZTSSt8ios_base", !10, i64 8, !10, i64 16, !12, i64 24, !13, i64 28, !13, i64 32, !14, i64 40, !15, i64 48, !11, i64 64, !16, i64 192, !14, i64 200, !17, i64 208}
!10 = !{!"long", !11, i64 0}
!11 = !{!"omnipotent char", !7, i64 0}
!12 = !{!"_ZTSSt13_Ios_Fmtflags", !11, i64 0}
!13 = !{!"_ZTSSt12_Ios_Iostate", !11, i64 0}
!14 = !{!"any pointer", !11, i64 0}
!15 = !{!"_ZTSNSt8ios_base6_WordsE", !14, i64 0, !10, i64 8}
!16 = !{!"int", !11, i64 0}
!17 = !{!"_ZTSSt6locale", !14, i64 0}
!18 = !{!16, !16, i64 0}
!19 = distinct !{!19, !20}
!20 = !{!"llvm.loop.mustprogress"}
!21 = distinct !{!21, !20}
!22 = distinct !{!22, !20, !23}
!23 = !{!"llvm.loop.isvectorized", i32 1}
!24 = distinct !{!24, !20, !25, !23}
!25 = !{!"llvm.loop.unroll.runtime.disable"}
!26 = !{!27, !14, i64 240}
!27 = !{!"_ZTSSt9basic_iosIcSt11char_traitsIcEE", !14, i64 216, !11, i64 224, !28, i64 225, !14, i64 232, !14, i64 240, !14, i64 248, !14, i64 256}
!28 = !{!"bool", !11, i64 0}
!29 = !{!30, !11, i64 56}
!30 = !{!"_ZTSSt5ctypeIcE", !14, i64 16, !28, i64 24, !14, i64 32, !14, i64 40, !14, i64 48, !11, i64 56, !11, i64 57, !11, i64 313, !11, i64 569}
!31 = !{!11, !11, i64 0}
!32 = distinct !{!32, !20}
